; Function Attrs: nounwind uwtable
define nonnull ptr @l_Int_Linear_cooper__dvd__right__cert___boxed(ptr noundef %0, ptr noundef %1, ptr noundef %2, ptr noundef %3, ptr noundef %4) local_unnamed_addr #1 {
  %6 = tail call zeroext i8 @l_Int_Linear_cooper__dvd__right__cert(ptr noundef %0, ptr noundef %1, ptr noundef %2, ptr noundef %3, ptr noundef %4)
  %7 = ptrtoint ptr %4 to i64
  %8 = and i64 %7, 1
  %.not = icmp eq i64 %8, 0
  br i1 %.not, label %9, label %lean_dec.exit14

9:                                                ; preds = %5
  %10 = load i32, ptr %4, align 4, !tbaa !6
  %11 = icmp sgt i32 %10, 1
  br i1 %11, label %12, label %14, !prof !5

12:                                               ; preds = %9
  %13 = add nsw i32 %10, -1
  store i32 %13, ptr %4, align 4, !tbaa !6
  br label %lean_dec.exit14

14:                                               ; preds = %9
  %.not.i = icmp eq i32 %10, 0
  br i1 %.not.i, label %lean_dec.exit14, label %15

15:                                               ; preds = %14
  tail call void @lean_dec_ref_cold(ptr noundef nonnull %4) #5
  br label %lean_dec.exit14

lean_dec.exit14:                                  ; preds = %15, %14, %12, %5
  %16 = ptrtoint ptr %3 to i64
  %17 = and i64 %16, 1
  %.not23 = icmp eq i64 %17, 0
  br i1 %.not23, label %18, label %lean_dec.exit13

18:                                               ; preds = %lean_dec.exit14
  %19 = load i32, ptr %3, align 4, !tbaa !6
  %20 = icmp sgt i32 %19, 1
  br i1 %20, label %21, label %23, !prof !5

21:                                               ; preds = %18
  %22 = add nsw i32 %19, -1
  store i32 %22, ptr %3, align 4, !tbaa !6
  br label %lean_dec.exit13

23:                                               ; preds = %18
  %.not.i15 = icmp eq i32 %19, 0
  br i1 %.not.i15, label %lean_dec.exit13, label %24

24:                                               ; preds = %23
  tail call void @lean_dec_ref_cold(ptr noundef nonnull %3) #5
  br label %lean_dec.exit13

lean_dec.exit13:                                  ; preds = %24, %23, %21, %lean_dec.exit14
  %25 = ptrtoint ptr %2 to i64
  %26 = and i64 %25, 1
  %.not24 = icmp eq i64 %26, 0
  br i1 %.not24, label %27, label %lean_dec.exit12

27:                                               ; preds = %lean_dec.exit13
  %28 = load i32, ptr %2, align 4, !tbaa !6
  %29 = icmp sgt i32 %28, 1
  br i1 %29, label %30, label %32, !prof !5

30:                                               ; preds = %27
  %31 = add nsw i32 %28, -1
  store i32 %31, ptr %2, align 4, !tbaa !6
  br label %lean_dec.exit12

32:                                               ; preds = %27
  %.not.i17 = icmp eq i32 %28, 0
  br i1 %.not.i17, label %lean_dec.exit12, label %33

33:                                               ; preds = %32
  tail call void @lean_dec_ref_cold(ptr noundef nonnull %2) #5
  br label %lean_dec.exit12

lean_dec.exit12:                                  ; preds = %33, %32, %30, %lean_dec.exit13
  %34 = ptrtoint ptr %1 to i64
  %35 = and i64 %34, 1
  %.not25 = icmp eq i64 %35, 0
  br i1 %.not25, label %36, label %lean_dec.exit11

36:                                               ; preds = %lean_dec.exit12
  %37 = load i32, ptr %1, align 4, !tbaa !6
  %38 = icmp sgt i32 %37, 1
  br i1 %38, label %39, label %41, !prof !5

39:                                               ; preds = %36
  %40 = add nsw i32 %37, -1
  store i32 %40, ptr %1, align 4, !tbaa !6
  br label %lean_dec.exit11

41:                                               ; preds = %36
  %.not.i19 = icmp eq i32 %37, 0
  br i1 %.not.i19, label %lean_dec.exit11, label %42

42:                                               ; preds = %41
  tail call void @lean_dec_ref_cold(ptr noundef nonnull %1) #5
  br label %lean_dec.exit11

lean_dec.exit11:                                  ; preds = %42, %41, %39, %lean_dec.exit12
  %43 = ptrtoint ptr %0 to i64
  %44 = and i64 %43, 1
  %.not26 = icmp eq i64 %44, 0
  br i1 %.not26, label %45, label %lean_dec.exit

45:                                               ; preds = %lean_dec.exit11
  %46 = load i32, ptr %0, align 4, !tbaa !6
  %47 = icmp sgt i32 %46, 1
  br i1 %47, label %48, label %50, !prof !5

48:                                               ; preds = %45
  %49 = add nsw i32 %46, -1
  store i32 %49, ptr %0, align 4, !tbaa !6
  br label %lean_dec.exit

50:                                               ; preds = %45
  %.not.i21 = icmp eq i32 %46, 0
  br i1 %.not.i21, label %lean_dec.exit, label %51

51:                                               ; preds = %50
  tail call void @lean_dec_ref_cold(ptr noundef nonnull %0) #5
  br label %lean_dec.exit

lean_dec.exit:                                    ; preds = %51, %50, %48, %lean_dec.exit11
  %52 = shl nuw nsw i8 %6, 1
  %53 = or disjoint i8 %52, 1
  %54 = zext nneg i8 %53 to i64
  %55 = inttoptr i64 %54 to ptr
  ret ptr %55
}